target datalayout = "e-m:e-p270:32:32-p271:32:32-p272:64:64-i64:64-i128:128-f80:128-n8:16:32:64-S128"
target triple = "x86_64-pc-linux-gnu"

%struct.DdManager = type { %struct.DdNode, ptr, ptr, ptr, ptr, ptr, ptr, ptr, i32, i32, double, double, double, i32, i32, i32, i32, i32, i32, ptr, ptr, %struct.DdSubtable, i32, i32, i32, i32, i32, i32, i32, double, i32, i32, i32, ptr, i64, double, i32, ptr, ptr, ptr, ptr, ptr, ptr, ptr, i32, ptr, ptr, ptr, ptr, ptr, ptr, i32, i32, i32, double, i32, i32, i32, i32, double, double, i32, i32, i32, i32, i32, i32, i32, i32, i32, ptr, ptr, i32, i32, i32, i32, i32, i32, ptr, ptr, ptr, ptr, ptr, ptr, ptr, ptr, i32, i64, i64, i64, i32, i64, i64, double, double, double, double, double, double, i32, ptr, ptr, i64 }
%struct.DdNode = type { i32, i32, ptr, %union.anon, i64 }
%union.anon = type { %struct.DdChildren }
%struct.DdChildren = type { ptr, ptr }
%struct.DdSubtable = type { ptr, i32, i32, i32, i32, i32, i32, i32, i32, i32, i32, i32 }

; Function Attrs: nounwind uwtable
define ptr @Cudd_addMatrixMultiply(ptr noundef %0, ptr noundef %1, ptr noundef %2, ptr noundef %3, i32 noundef %4) #0 {
  %6 = alloca ptr, align 8
  %7 = alloca ptr, align 8
  %8 = alloca ptr, align 8
  %9 = alloca ptr, align 8
  %10 = alloca ptr, align 8
  %11 = alloca i32, align 4
  %12 = alloca i32, align 4
  %13 = alloca i32, align 4
  %14 = alloca ptr, align 8
  %15 = alloca ptr, align 8
  %16 = alloca i32, align 4
  store ptr %0, ptr %7, align 8, !tbaa !3
  store ptr %1, ptr %8, align 8, !tbaa !8
  store ptr %2, ptr %9, align 8, !tbaa !8
  store ptr %3, ptr %10, align 8, !tbaa !10
  store i32 %4, ptr %11, align 4, !tbaa !12
  call void @llvm.lifetime.start.p0(i64 4, ptr %12) #5
  call void @llvm.lifetime.start.p0(i64 4, ptr %13) #5
  call void @llvm.lifetime.start.p0(i64 8, ptr %14) #5
  call void @llvm.lifetime.start.p0(i64 8, ptr %15) #5
  %17 = load ptr, ptr %7, align 8, !tbaa !3
  %18 = getelementptr inbounds nuw %struct.DdManager, ptr %17, i32 0, i32 15
  %19 = load i32, ptr %18, align 8, !tbaa !14
  store i32 %19, ptr %13, align 4, !tbaa !12
  %20 = load i32, ptr %13, align 4, !tbaa !12
  %21 = sext i32 %20 to i64
  %22 = mul i64 4, %21
  %23 = call noalias ptr @malloc(i64 noundef %22) #6
  store ptr %23, ptr %14, align 8, !tbaa !29
  %24 = load ptr, ptr %14, align 8, !tbaa !29
  %25 = icmp eq ptr %24, null
  br i1 %25, label %26, label %29

26:                                               ; preds = %5
  %27 = load ptr, ptr %7, align 8, !tbaa !3
  %28 = getelementptr inbounds nuw %struct.DdManager, ptr %27, i32 0, i32 86
  store i32 1, ptr %28, align 8, !tbaa !30
  store ptr null, ptr %6, align 8
  store i32 1, ptr %16, align 4
  br label %83

29:                                               ; preds = %5
  store i32 0, ptr %12, align 4, !tbaa !12
  br label %30

30:                                               ; preds = %39, %29
  %31 = load i32, ptr %12, align 4, !tbaa !12
  %32 = load i32, ptr %13, align 4, !tbaa !12
  %33 = icmp slt i32 %31, %32
  br i1 %33, label %34, label %42

34:                                               ; preds = %30
  %35 = load ptr, ptr %14, align 8, !tbaa !29
  %36 = load i32, ptr %12, align 4, !tbaa !12
  %37 = sext i32 %36 to i64
  %38 = getelementptr inbounds i32, ptr %35, i64 %37
  store i32 0, ptr %38, align 4, !tbaa !12
  br label %39

39:                                               ; preds = %34
  %40 = load i32, ptr %12, align 4, !tbaa !12
  %41 = add nsw i32 %40, 1
  store i32 %41, ptr %12, align 4, !tbaa !12
  br label %30, !llvm.loop !31

42:                                               ; preds = %30
  store i32 0, ptr %12, align 4, !tbaa !12
  br label %43

43:                                               ; preds = %58, %42
  %44 = load i32, ptr %12, align 4, !tbaa !12
  %45 = load i32, ptr %11, align 4, !tbaa !12
  %46 = icmp slt i32 %44, %45
  br i1 %46, label %47, label %61

47:                                               ; preds = %43
  %48 = load ptr, ptr %14, align 8, !tbaa !29
  %49 = load ptr, ptr %10, align 8, !tbaa !10
  %50 = load i32, ptr %12, align 4, !tbaa !12
  %51 = sext i32 %50 to i64
  %52 = getelementptr inbounds ptr, ptr %49, i64 %51
  %53 = load ptr, ptr %52, align 8, !tbaa !8
  %54 = getelementptr inbounds nuw %struct.DdNode, ptr %53, i32 0, i32 0
  %55 = load i32, ptr %54, align 8, !tbaa !33
  %56 = zext i32 %55 to i64
  %57 = getelementptr inbounds nuw i32, ptr %48, i64 %56
  store i32 1, ptr %57, align 4, !tbaa !12
  br label %58

58:                                               ; preds = %47
  %59 = load i32, ptr %12, align 4, !tbaa !12
  %60 = add nsw i32 %59, 1
  store i32 %60, ptr %12, align 4, !tbaa !12
  br label %43, !llvm.loop !34

61:                                               ; preds = %43
  br label %62

62:                                               ; preds = %70, %61
  %63 = load ptr, ptr %7, align 8, !tbaa !3
  %64 = getelementptr inbounds nuw %struct.DdManager, ptr %63, i32 0, i32 55
  store i32 0, ptr %64, align 8, !tbaa !35
  %65 = load ptr, ptr %7, align 8, !tbaa !3
  %66 = load ptr, ptr %8, align 8, !tbaa !8
  %67 = load ptr, ptr %9, align 8, !tbaa !8
  %68 = load ptr, ptr %14, align 8, !tbaa !29
  %69 = call ptr @addMMRecur(ptr noundef %65, ptr noundef %66, ptr noundef %67, i32 noundef -1, ptr noundef %68)
  store ptr %69, ptr %15, align 8, !tbaa !8
  br label %70

70:                                               ; preds = %62
  %71 = load ptr, ptr %7, align 8, !tbaa !3
  %72 = getelementptr inbounds nuw %struct.DdManager, ptr %71, i32 0, i32 55
  %73 = load i32, ptr %72, align 8, !tbaa !35
  %74 = icmp eq i32 %73, 1
  br i1 %74, label %62, label %75, !llvm.loop !36

75:                                               ; preds = %70
  %76 = load ptr, ptr %14, align 8, !tbaa !29
  %77 = icmp ne ptr %76, null
  br i1 %77, label %78, label %80

78:                                               ; preds = %75
  %79 = load ptr, ptr %14, align 8, !tbaa !29
  call void @free(ptr noundef %79) #5
  store ptr null, ptr %14, align 8, !tbaa !29
  br label %81

80:                                               ; preds = %75
  br label %81

81:                                               ; preds = %80, %78
  %82 = load ptr, ptr %15, align 8, !tbaa !8
  store ptr %82, ptr %6, align 8
  store i32 1, ptr %16, align 4
  br label %83

83:                                               ; preds = %81, %26
  call void @llvm.lifetime.end.p0(i64 8, ptr %15) #5
  call void @llvm.lifetime.end.p0(i64 8, ptr %14) #5
  call void @llvm.lifetime.end.p0(i64 4, ptr %13) #5
  call void @llvm.lifetime.end.p0(i64 4, ptr %12) #5
  %84 = load ptr, ptr %6, align 8
  ret ptr %84
}