; Function Attrs: nounwind uwtable
define ptr @Cudd_addMatrixMultiply(ptr noundef %0, ptr noundef %1, ptr noundef %2, ptr noundef readonly captures(none) %3, i32 noundef %4) local_unnamed_addr #0 {
  %6 = getelementptr inbounds nuw i8, ptr %0, i64 136
  %7 = load i32, ptr %6, align 8, !tbaa !3
  %8 = sext i32 %7 to i64
  %9 = shl nsw i64 %8, 2
  %10 = tail call noalias ptr @malloc(i64 noundef %9) #6
  %11 = icmp eq ptr %10, null
  br i1 %11, label %15, label %.preheader27

.preheader27:                                     ; preds = %5
  %12 = icmp sgt i32 %7, 0
  br i1 %12, label %.lr.ph.preheader, label %.preheader26

.lr.ph.preheader:                                 ; preds = %.preheader27
  %13 = zext nneg i32 %7 to i64
  %14 = shl nuw nsw i64 %13, 2
  tail call void @llvm.memset.p0.i64(ptr nonnull align 4 %10, i8 0, i64 %14, i1 false), !tbaa !24
  br label %.preheader26

15:                                               ; preds = %5
  %16 = getelementptr inbounds nuw i8, ptr %0, i64 624
  store i32 1, ptr %16, align 8, !tbaa !25
  br label %29

.preheader26:                                     ; preds = %.lr.ph.preheader, %.preheader27
  %17 = icmp sgt i32 %4, 0
  br i1 %17, label %.lr.ph30.preheader, label %.preheader

.lr.ph30.preheader:                               ; preds = %.preheader26
  %wide.trip.count = zext nneg i32 %4 to i64
  br label %.lr.ph30

.preheader:                                       ; preds = %.lr.ph30, %.preheader26
  %18 = getelementptr inbounds nuw i8, ptr %0, i64 448
  br label %24

.lr.ph30:                                         ; preds = %.lr.ph30.preheader, %.lr.ph30
  %indvars.iv = phi i64 [ 0, %.lr.ph30.preheader ], [ %indvars.iv.next, %.lr.ph30 ]
  %19 = getelementptr inbounds nuw ptr, ptr %3, i64 %indvars.iv
  %20 = load ptr, ptr %19, align 8, !tbaa !26
  %21 = load i32, ptr %20, align 8, !tbaa !27
  %22 = zext i32 %21 to i64
  %23 = getelementptr inbounds nuw i32, ptr %10, i64 %22
  store i32 1, ptr %23, align 4, !tbaa !24
  %indvars.iv.next = add nuw nsw i64 %indvars.iv, 1
  %exitcond.not = icmp eq i64 %indvars.iv.next, %wide.trip.count
  br i1 %exitcond.not, label %.preheader, label %.lr.ph30, !llvm.loop !28

24:                                               ; preds = %.preheader, %24
  store i32 0, ptr %18, align 8, !tbaa !30
  %25 = tail call ptr @addMMRecur(ptr noundef %0, ptr noundef %1, ptr noundef %2, i32 noundef -1, ptr noundef nonnull %10)
  %26 = load i32, ptr %18, align 8, !tbaa !30
  %27 = icmp eq i32 %26, 1
  br i1 %27, label %24, label %28, !llvm.loop !31

28:                                               ; preds = %24
  tail call void @free(ptr noundef nonnull %10) #7
  br label %29

29:                                               ; preds = %28, %15
  %.0 = phi ptr [ null, %15 ], [ %25, %28 ]
  ret ptr %.0
}